
There are no discarded input sections

Memory Configuration

Name             Origin             Length             Attributes
exec_file        0x0000000000000000 0x0000000000100000 r
ram              0x0000000000110000 0x00000000000f0000 xw
*default*        0x0000000000000000 0xffffffffffffffff

Linker script and memory map


.header         0x0000000000000000       0x10
                0x0000000000000000        0x8 QUAD 0x112758 __bss_start
                0x0000000000000008        0x8 QUAD 0x1060 (__bss_end - __bss_start)

.body           0x0000000000110000     0x3c10 load address 0x0000000000000010
 *(.text)
 .text          0x0000000000110000      0x134 main.o
                0x0000000000110000                start_kernel
 .text          0x0000000000110134      0x182 fbcon.o
                0x0000000000110134                putc
                0x0000000000110280                puts
 .text          0x00000000001102b6      0x219 fb.o
                0x00000000001102b6                fb_init
                0x00000000001102f8                set_fg
                0x000000000011032e                set_bg
                0x0000000000110364                draw_px
                0x00000000001103c7                draw_px_fg
                0x0000000000110406                fill_rect
                0x0000000000110480                clear_screen
 .text          0x00000000001104cf        0x0 font.o
 .text          0x00000000001104cf      0x114 kbc.o
                0x00000000001104cf                get_kbc_data
                0x00000000001104f4                get_keycode
                0x0000000000110513                getc
                0x000000000011052a                do_kbc_interrupt
                0x00000000001105b1                kbc_init
 .text          0x00000000001105e3       0x97 x86.o
                0x00000000001105e3                enable_cpu_intr
                0x00000000001105eb                cpu_halt
                0x00000000001105f3                io_read
                0x000000000011060d                io_write
                0x0000000000110628                gdt_init
 .text          0x000000000011067a      0x11d intr.o
                0x000000000011067a                set_intr_desc
                0x0000000000110728                intr_init
 .text          0x0000000000110797      0x129 pic.o
                0x0000000000110797                pic_init
                0x0000000000110834                enable_pic_intr
                0x0000000000110890                set_pic_eoi
 .text          0x00000000001108c0       0x17 handler.o
                0x00000000001108c0                default_handler
                0x00000000001108c2                kbc_handler
 .text          0x00000000001108d7       0x76 fs.o
                0x00000000001108d7                fs_init
                0x00000000001108ed                open
 .text          0x000000000011094d       0x95 common.o
                0x000000000011094d                strcmp
 *(.rodata)
 .rodata        0x00000000001109e2       0x43 main.o
 *fill*         0x0000000000110a25       0x1b 
 .rodata        0x0000000000110a40     0x1c70 font.o
                0x0000000000110a40                font_bitmap
 *fill*         0x00000000001126b0       0x10 
 .rodata        0x00000000001126c0       0x80 kbc.o
                0x00000000001126c0                keymap
 .rodata        0x0000000000112740       0x18 x86.o
                0x0000000000112740                gdt
 *(.data)
 .data          0x0000000000112758        0x0 main.o
 .data          0x0000000000112758        0x0 fbcon.o
 .data          0x0000000000112758        0x0 fb.o
 .data          0x0000000000112758        0x0 font.o
 .data          0x0000000000112758        0x0 kbc.o
 .data          0x0000000000112758        0x0 x86.o
 .data          0x0000000000112758        0x0 intr.o
 .data          0x0000000000112758        0x0 pic.o
 .data          0x0000000000112758        0x0 handler.o
 .data          0x0000000000112758        0x0 fs.o
 .data          0x0000000000112758        0x0 common.o
                0x0000000000112758                __bss_start = .
 *(.bss)
 .bss           0x0000000000112758        0x0 main.o
 .bss           0x0000000000112758        0x8 fbcon.o
                0x0000000000112758                cursor_x
                0x000000000011275c                cursor_y
 .bss           0x0000000000112760       0x20 fb.o
                0x0000000000112760                fb
                0x0000000000112778                color_fg
                0x000000000011277c                color_bg
 .bss           0x0000000000112780        0x0 font.o
 .bss           0x0000000000112780        0x0 kbc.o
 .bss           0x0000000000112780       0x10 x86.o
                0x0000000000112780                gdtr
 *fill*         0x0000000000112790       0x10 
 .bss           0x00000000001127a0     0x1010 intr.o
                0x00000000001127a0                idt
                0x00000000001137a0                idtr
 .bss           0x00000000001137b0        0x0 pic.o
 .bss           0x00000000001137b0        0x0 handler.o
 .bss           0x00000000001137b0        0x8 fs.o
                0x00000000001137b0                fs_start
 .bss           0x00000000001137b8        0x0 common.o
                0x00000000001137b8                __bss_end = .
 *(.eh_frame)
 .eh_frame      0x00000000001137b8       0x38 main.o
 .eh_frame      0x00000000001137f0       0x58 fbcon.o
 .eh_frame      0x0000000000113848       0xf8 fb.o
 .eh_frame      0x0000000000113940       0xb8 kbc.o
 .eh_frame      0x00000000001139f8       0xb8 x86.o
 .eh_frame      0x0000000000113ab0       0x58 intr.o
 .eh_frame      0x0000000000113b08       0x78 pic.o
 .eh_frame      0x0000000000113b80       0x58 fs.o
 .eh_frame      0x0000000000113bd8       0x38 common.o
LOAD main.o
LOAD fbcon.o
LOAD fb.o
LOAD font.o
LOAD kbc.o
LOAD x86.o
LOAD intr.o
LOAD pic.o
LOAD handler.o
LOAD fs.o
LOAD common.o
OUTPUT(fs/kernel.bin binary)

.comment        0x0000000000000000       0xbe
 .comment       0x0000000000000000       0x13 main.o
 .comment       0x0000000000000013       0x13 fbcon.o
 .comment       0x0000000000000026       0x13 fb.o
 .comment       0x0000000000000039       0x13 font.o
 .comment       0x000000000000004c       0x13 kbc.o
 .comment       0x000000000000005f       0x13 x86.o
 .comment       0x0000000000000072       0x13 intr.o
 .comment       0x0000000000000085       0x13 pic.o
 .comment       0x0000000000000098       0x13 fs.o
 .comment       0x00000000000000ab       0x13 common.o
